(dp1
S'output'
p2
S"<type 'exceptions.TypeError'> 'NoneType' object has no attribute '__getitem__'"
p3
sS'layer'
p4
S'/home/gaurav/web2py/applications/minor/views/default/trendinglang.html'
p5
sS'code'
p6
S'response.write(\'<!DOCTYPE html>\\n<!--[if (gt IE 9)|!(IE)]><!--> <html class="no-js" lang="\', escape=False)\nresponse.write(T.accepted_language or \'en\')\nresponse.write(\'"> <!--<![endif]-->\\n  <head>\\n    <meta charset="utf-8">\\n    <!-- www.phpied.com/conditional-comments-block-downloads/ -->\\n    <!-- Always force latest IE rendering engine\\n         (even in intranet) & Chrome Frame\\n         Remove this if you use the .htaccess -->\\n    <meta http-equiv="X-UA-Compatible" content="IE=edge\', escape=False)\nresponse.write(not request.is_local and \',chrome=1\' or \'\')\nresponse.write(\'">\\n    <!--  Mobile Viewport Fix\\n          j.mp/mobileviewport & davidbcalhoun.com/2010/viewport-metatag\\n          device-width: Occupy full width of the screen in its current orientation\\n          initial-scale = 1.0 retains dimensions instead of zooming out if page height > device height\\n          user-scalable = yes allows the user to zoom in -->\\n    <meta name="viewport" content="width=device-width, initial-scale=1.0">\\n    <title>\', escape=False)\nresponse.write(response.title or request.application)\nresponse.write(\'</title>\\n    <!-- http://dev.w3.org/html5/markup/meta.name.html -->\\n    <meta name="application-name" content="\', escape=False)\nresponse.write(request.application)\nresponse.write(\'">\\n    <!-- Speaking of Google, don\\\'t forget to set your site up:\\n         http://google.com/webmasters -->\\n    <meta name="google-site-verification" content="">\\n    <!-- include stylesheets -->\\n    <link rel="stylesheet" href="\', escape=False)\nresponse.write(URL(\'static\',\'css/bootstrap.min.css\'))\nresponse.write(\'"/>\\n    <link rel="stylesheet" href="\', escape=False)\nresponse.write(URL(\'static\',\'css/bootstrap-theme.min.css\'))\nresponse.write(\'"/>\\n    <link rel="stylesheet" href="\', escape=False)\nresponse.write(URL(\'static\',\'css/web2py-bootstrap3.css\'))\nresponse.write(\'"/>\\n    <link rel="shortcut icon" href="\', escape=False)\nresponse.write(URL(\'static\',\'images/favicon.ico\'))\nresponse.write(\'" type="image/x-icon">\\n    <link rel="apple-touch-icon" href="\', escape=False)\nresponse.write(URL(\'static\',\'images/favicon.png\'))\nresponse.write(\'">\\n    <!-- All JavaScript at the bottom, except for Modernizr which enables\\n         HTML5 elements & feature detects -->\\n    <script src="\', escape=False)\nresponse.write(URL(\'static\',\'js/modernizr-2.8.3.min.js\'))\nresponse.write(\'"></script>\\n    <!--[if lt IE 9]>\\n        <script src="\', escape=False)\nresponse.write(URL(\'static\',\'js/respond-1.4.2.min.js\'))\nresponse.write(\'"></script>\\n        <![endif]-->\\n    <!-- Favicons -->\\n    \', escape=False)\nresponse.write(\'<script type="text/javascript"><!--\\n    // These variables are used by the web2py_ajax_init function in web2py_ajax.js (which is loaded below).\\n    var w2p_ajax_confirm_message = "\', escape=False)\nresponse.write(T(\'Are you sure you want to delete this object?\'))\nresponse.write(\'";\\n    var w2p_ajax_disable_with_message = "\', escape=False)\nresponse.write(T(\'Working...\'))\nresponse.write(\'";\\n    var w2p_ajax_date_format = "\', escape=False)\nresponse.write(T(\'%Y-%m-%d\'))\nresponse.write(\'";\\n    var w2p_ajax_datetime_format = "\', escape=False)\nresponse.write(T(\'%Y-%m-%d %H:%M:%S\'))\nresponse.write(\'";\\n    var ajax_error_500 = \\\'\', escape=False)\nresponse.write(T.M(\'An error occured, please [[reload %s]] the page\') % URL(args=request.args, vars=request.get_vars))\nresponse.write("\'\\n    //--></script>\\n", escape=False)\nresponse.files.insert(0,URL(\'static\',\'js/jquery.js\'))\nresponse.files.insert(1,URL(\'static\',\'css/calendar.css\'))\nresponse.files.insert(2,URL(\'static\',\'js/calendar.js\'))\nresponse.files.insert(3,URL(\'static\',\'js/web2py.js\'))\nresponse.include_meta()\nresponse.include_files()\nresponse.write(\'\\n\', escape=False)\nresponse.write(\' <!-- this includes jquery.js, calendar.js/.css and web2py.js -->\\n    \', escape=False)\nresponse.write(\'\\n    \', escape=False)\n# using sidebars need to know what sidebar you want to use\nmc0 = \'col-md-12\'\nmc1 = \'col-md-9\'\nmc2 = \'col-md-6\'\nleft_sidebar_enabled = globals().get(\'left_sidebar_enabled\', False)\nright_sidebar_enabled = globals().get(\'right_sidebar_enabled\', False)\nmiddle_column = {0: mc0, 1: mc1, 2: mc2}[\n(left_sidebar_enabled and 1 or 0)+(right_sidebar_enabled and 1 or 0)]\nresponse.write(\'\\n  </head>\\n  <body>\\n    <!--[if lt IE 8]><p class="browserupgrade">You are using an <strong>outdated</strong> browser. Please <a href="http://browsehappy.com/">upgrade your browser</a> to improve your experience.</p><![endif]-->\\n    <div class="flash alert alert-dismissable">\', escape=False)\nresponse.write(response.flash or \'\')\nresponse.write(\'</div>\\n    <!-- Navbar ======================================= -->\\n    <nav class="navbar navbar-inverse navbar-fixed-top" role="navigation">\\n      <div class="container-fluid">\\n        <div class="navbar-header">\\n          <button type="button" class="navbar-toggle" data-toggle="collapse" data-target=".navbar-collapse">\\n            <span class="sr-only">Toggle navigation</span>\\n            <span class="icon-bar"></span>\\n            <span class="icon-bar"></span>\\n            <span class="icon-bar"></span>\\n          </button>\\n          \', escape=False)\nresponse.write(response.logo or \'\')\nresponse.write(\'\\n        </div>\\n        <div class="collapse navbar-collapse navbar-ex1-collapse">\\n          <ul class="nav navbar-nav navbar-right">\\n            \', escape=False)\nresponse.write(\'auth\' in globals() and auth.navbar(\'Welcome\',mode=\'dropdown\') or \'\')\nresponse.write(\'\\n          </ul>\\n          \', escape=False)\nif response.menu:\n    response.write(\'\\n          \', escape=False)\n    response.write(MENU(response.menu, _class=\'nav navbar-nav\',li_class=\'dropdown\',ul_class=\'dropdown-menu\'))\n    response.write(\'\\n          \', escape=False)\n    pass\nresponse.write(\'\\n        </div>\\n      </div>\\n    </nav>\\n    <!-- Masthead ===================================== -->    \\n    \', escape=False)\nresponse.write(\'\\n    \', escape=False)\nresponse.write(\'\\n    <!-- Main ========================================= -->\\n    <!-- Begin page content -->\\n    <div class="container-fluid">\\n      \', escape=False)\nif left_sidebar_enabled:\n    response.write(\'\\n        <div class="col-md-3 left-sidebar">\\n            \', escape=False)\n    response.write(\'\\n            <h3>Left Sidebar</h3>\\n            <p></p>\\n            \', escape=False)\n    response.write(\'\\n        </div>\\n      \', escape=False)\n    pass\nresponse.write(\'\\n\\n      <div class="\', escape=False)\nresponse.write(middle_column)\nresponse.write(\'">\\n        \', escape=False)\nresponse.write(\'\\n        \', escape=False)\nresponse.write(\'\\n<style>\\n.trend{\\nfont-size:20px;\\ncolor:green;\\nmargin-left:50px;\\npadding-bottom: 25px;\\nmargin-bottom:100px\\n}\\n</style>\\n<h2 style=""><center>Trending Language</center></h2>\\n<div class="trend">\\nMost Trending Language : \\t:\', escape=False)\nresponse.write(trendinglang[0])\nresponse.write(\'<br/>\\nEdits per hour in trending Lang\\t:\', escape=False)\nresponse.write(counts)\nresponse.write(\'\\nEdits per hour in trending Lang\\t:\', escape=False)\nresponse.write(sortedlist[0])\nresponse.write(\'\\nEdits per hour in trending Lang\\t:\', escape=False)\nresponse.write(sortedlist[1])\nresponse.write(\'\\nEdits per hour in trending Lang\\t:\', escape=False)\nresponse.write(sortedlist[2])\nresponse.write(\'\\n</div>\\n\', escape=False)\nresponse.write(\'\\n        \', escape=False)\nresponse.write(\'\\n      </div>\\n\\n      \', escape=False)\nif right_sidebar_enabled:\n    response.write(\'\\n        <div class="col-md-3">\\n            \', escape=False)\n    response.write(\'\\n            <h3>Right Sidebar</h3>\\n            <p></p>\\n            \', escape=False)\n    response.write(\'\\n        </div>\\n      \', escape=False)\n    pass\nresponse.write(\'\\n\\n    </div>\\n\\n    \', escape=False)\nresponse.write(\' <!-- this is default footer -->      \\n    <footer class="footer">\\n      <div class="container-fluid">\\n        <div class="copyright pull-left">\', escape=False)\nresponse.write(T(\'Copyright\'))\nresponse.write(\' &#169; \', escape=False)\nresponse.write(request.now.year)\nresponse.write(\'</div>\\n          <div id="poweredBy" class="pull-right">\\n            \', escape=False)\nresponse.write(T(\'Powered by\'))\nresponse.write(\'\\n            <a href="http://www.web2py.com/">web2py</a>\\n          </div>\\n      </div>\\n    </footer>\\n    \', escape=False)\nresponse.write(\'\\n    <!-- The javascript =============================== -->\\n    <script src="\', escape=False)\nresponse.write(URL(\'static\',\'js/bootstrap.min.js\'))\nresponse.write(\'"></script>\\n    <script src="\', escape=False)\nresponse.write(URL(\'static\',\'js/web2py-bootstrap3.js\'))\nresponse.write(\'"></script>\\n    \', escape=False)\nresponse.write(\'\\n    \', escape=False)\nif response.google_analytics_id:\n    response.write(\'\\n    <!-- Analytics ==================================== -->\\n    <script src="\', escape=False)\n    response.write(URL(\'static\',\'js/analytics.min.js\'))\n    response.write(\'"></script>\\n    <script type="text/javascript">\\n      analytics.initialize({\\n      \\\'Google Analytics\\\':{trackingId:\\\'\', escape=False)\n    response.write(response.google_analytics_id)\n    response.write("\'}\\n      });\\n    </script>\\n    ", escape=False)\n    pass\nresponse.write(\'\\n    <!-- Share ============================y============ -->\\n    <script src="\', escape=False)\nresponse.write(URL(\'static\',\'js/share.js\',vars=dict(static=URL(\'static\',\'images\'))))\nresponse.write(\'"></script>\\n  </body>\\n</html>\\n\', escape=False)'
p7
sS'snapshot'
p8
(dp9
S'exception'
p10
(dp11
S'__hash__'
p12
S"<method-wrapper '__hash__' of exceptions.TypeError object>"
p13
sS'__setattr__'
p14
S"<method-wrapper '__setattr__' of exceptions.TypeError object>"
p15
sS'__reduce_ex__'
p16
S'<built-in method __reduce_ex__ of exceptions.TypeError object>'
p17
sS'__getslice__'
p18
S"<method-wrapper '__getslice__' of exceptions.TypeError object>"
p19
sS'__getitem__'
p20
S"<method-wrapper '__getitem__' of exceptions.TypeError object>"
p21
sS'__setstate__'
p22
S'<built-in method __setstate__ of exceptions.TypeError object>'
p23
sS'args'
p24
S'("\'NoneType\' object has no attribute \'__getitem__\'",)'
p25
sS'__reduce__'
p26
S'<built-in method __reduce__ of exceptions.TypeError object>'
p27
sS'__str__'
p28
S"<method-wrapper '__str__' of exceptions.TypeError object>"
p29
sS'__format__'
p30
S'<built-in method __format__ of exceptions.TypeError object>'
p31
sS'__getattribute__'
p32
S"<method-wrapper '__getattribute__' of exceptions.TypeError object>"
p33
sS'__class__'
p34
S"<type 'exceptions.TypeError'>"
p35
sS'__unicode__'
p36
S'<built-in method __unicode__ of exceptions.TypeError object>'
p37
sS'__delattr__'
p38
S"<method-wrapper '__delattr__' of exceptions.TypeError object>"
p39
sS'__subclasshook__'
p40
S'<built-in method __subclasshook__ of type object>'
p41
sS'__repr__'
p42
S"<method-wrapper '__repr__' of exceptions.TypeError object>"
p43
sS'__dict__'
p44
S'{}'
p45
sS'__sizeof__'
p46
S'<built-in method __sizeof__ of exceptions.TypeError object>'
p47
sS'__doc__'
p48
S"'Inappropriate argument type.'"
p49
sS'__init__'
p50
S"<method-wrapper '__init__' of exceptions.TypeError object>"
p51
sS'__new__'
p52
S'<built-in method __new__ of type object>'
p53
ssS'evalue'
p54
S"'NoneType' object has no attribute '__getitem__'"
p55
sS'request'
p56
cgluon.html
XML_unpickle
p57
(S's\xfe[\x00\x00<div><table><tr><td style="font-weight:bold;vertical-align:top;">ajax</td><td style="vertical-align:top;">:</td><td><div>False</div></td></tr><tr><td style="font-weight:bold;vertical-align:top;">application</td><td style="vertical-align:top;">:</td><td><div>minor</div></td></tr><tr><td style="font-weight:bold;vertical-align:top;">args</td><td style="vertical-align:top;">:</td><td><div><table></table></div></td></tr><tr><td style="font-weight:bold;vertical-align:top;">cid</td><td style="vertical-align:top;">:</td><td><div>None</div></td></tr><tr><td style="font-weight:bold;vertical-align:top;">client</td><td style="vertical-align:top;">:</td><td><div>127.0.0.1</div></td></tr><tr><td style="font-weight:bold;vertical-align:top;">controller</td><td style="vertical-align:top;">:</td><td><div>default</div></td></tr><tr><td style="font-weight:bold;vertical-align:top;">cookies</td><td style="vertical-align:top;">:</td><td><div><table><tr><td style="font-weight:bold;vertical-align:top;">session_id_admin</td><td style="vertical-align:top;">:</td><td><div>127.0.0.1-2ecd2414-1e32-4ef1-8465-f55534696777<table><tr><td style="font-weight:bold;vertical-align:top;">comment</td><td style="vertical-align:top;">:</td><td><div></div></td></tr><tr><td style="font-weight:bold;vertical-align:top;">domain</td><td style="vertical-align:top;">:</td><td><div></div></td></tr><tr><td style="font-weight:bold;vertical-align:top;">expires</td><td style="vertical-align:top;">:</td><td><div></div></td></tr><tr><td style="font-weight:bold;vertical-align:top;">httponly</td><td style="vertical-align:top;">:</td><td><div></div></td></tr><tr><td style="font-weight:bold;vertical-align:top;">max-age</td><td style="vertical-align:top;">:</td><td><div></div></td></tr><tr><td style="font-weight:bold;vertical-align:top;">path</td><td style="vertical-align:top;">:</td><td><div></div></td></tr><tr><td style="font-weight:bold;vertical-align:top;">secure</td><td style="vertical-align:top;">:</td><td><div></div></td></tr><tr><td style="font-weight:bold;vertical-align:top;">version</td><td style="vertical-align:top;">:</td><td><div></div></td></tr></table></div></td></tr><tr><td style="font-weight:bold;vertical-align:top;">session_id_minor</td><td style="vertical-align:top;">:</td><td><div>127.0.0.1-abf35c95-46f8-4cd6-a550-8772393b6e0e<table><tr><td style="font-weight:bold;vertical-align:top;">comment</td><td style="vertical-align:top;">:</td><td><div></div></td></tr><tr><td style="font-weight:bold;vertical-align:top;">domain</td><td style="vertical-align:top;">:</td><td><div></div></td></tr><tr><td style="font-weight:bold;vertical-align:top;">expires</td><td style="vertical-align:top;">:</td><td><div></div></td></tr><tr><td style="font-weight:bold;vertical-align:top;">httponly</td><td style="vertical-align:top;">:</td><td><div></div></td></tr><tr><td style="font-weight:bold;vertical-align:top;">max-age</td><td style="vertical-align:top;">:</td><td><div></div></td></tr><tr><td style="font-weight:bold;vertical-align:top;">path</td><td style="vertical-align:top;">:</td><td><div></div></td></tr><tr><td style="font-weight:bold;vertical-align:top;">secure</td><td style="vertical-align:top;">:</td><td><div></div></td></tr><tr><td style="font-weight:bold;vertical-align:top;">version</td><td style="vertical-align:top;">:</td><td><div></div></td></tr></table></div></td></tr><tr><td style="font-weight:bold;vertical-align:top;">session_id_welcome</td><td style="vertical-align:top;">:</td><td><div>127.0.0.1-de2acef1-573d-402f-b522-a980e62e77f9<table><tr><td style="font-weight:bold;vertical-align:top;">comment</td><td style="vertical-align:top;">:</td><td><div></div></td></tr><tr><td style="font-weight:bold;vertical-align:top;">domain</td><td style="vertical-align:top;">:</td><td><div></div></td></tr><tr><td style="font-weight:bold;vertical-align:top;">expires</td><td style="vertical-align:top;">:</td><td><div></div></td></tr><tr><td style="font-weight:bold;vertical-align:top;">httponly</td><td style="vertical-align:top;">:</td><td><div></div></td></tr><tr><td style="font-weight:bold;vertical-align:top;">max-age</td><td style="vertical-align:top;">:</td><td><div></div></td></tr><tr><td style="font-weight:bold;vertical-align:top;">path</td><td style="vertical-align:top;">:</td><td><div></div></td></tr><tr><td style="font-weight:bold;vertical-align:top;">secure</td><td style="vertical-align:top;">:</td><td><div></div></td></tr><tr><td style="font-weight:bold;vertical-align:top;">version</td><td style="vertical-align:top;">:</td><td><div></div></td></tr></table></div></td></tr></table></div></td></tr><tr><td style="font-weight:bold;vertical-align:top;">env</td><td style="vertical-align:top;">:</td><td><div><table><tr><td style="font-weight:bold;vertical-align:top;">HTTP_ACCEPT</td><td style="vertical-align:top;">:</td><td><div>text/html,application/xhtml+xml,application/xml;q=0.9,image/webp,*/*;q=0.8</div></td></tr><tr><td style="font-weight:bold;vertical-align:top;">HTTP_ACCEPT_ENCODING</td><td style="vertical-align:top;">:</td><td><div>gzip, deflate, sdch</div></td></tr><tr><td style="font-weight:bold;vertical-align:top;">HTTP_ACCEPT_LANGUAGE</td><td style="vertical-align:top;">:</td><td><div>en-US,en;q=0.8</div></td></tr><tr><td style="font-weight:bold;vertical-align:top;">HTTP_CACHE_CONTROL</td><td style="vertical-align:top;">:</td><td><div>max-age=0</div></td></tr><tr><td style="font-weight:bold;vertical-align:top;">HTTP_CONNECTION</td><td style="vertical-align:top;">:</td><td><div>keep-alive</div></td></tr><tr><td style="font-weight:bold;vertical-align:top;">HTTP_COOKIE</td><td style="vertical-align:top;">:</td><td><div>session_id_welcome=127.0.0.1-de2acef1-573d-402f-b522-a980e62e77f9; session_id_minor=127.0.0.1-abf35c95-46f8-4cd6-a550-8772393b6e0e; session_id_admin=127.0.0.1-2ecd2414-1e32-4ef1-8465-f55534696777</div></td></tr><tr><td style="font-weight:bold;vertical-align:top;">HTTP_DNT</td><td style="vertical-align:top;">:</td><td><div>1</div></td></tr><tr><td style="font-weight:bold;vertical-align:top;">HTTP_HOST</td><td style="vertical-align:top;">:</td><td><div>127.0.0.1:8000</div></td></tr><tr><td style="font-weight:bold;vertical-align:top;">HTTP_USER_AGENT</td><td style="vertical-align:top;">:</td><td><div>Mozilla/5.0 (X11; Linux x86_64) AppleWebKit/537.36 (KHTML, like Gecko) Chrome/42.0.2311.135 Safari/537.36</div></td></tr><tr><td style="font-weight:bold;vertical-align:top;">PATH_INFO</td><td style="vertical-align:top;">:</td><td><div>/minor/default/trendinglang</div></td></tr><tr><td style="font-weight:bold;vertical-align:top;">QUERY_STRING</td><td style="vertical-align:top;">:</td><td><div></div></td></tr><tr><td style="font-weight:bold;vertical-align:top;">REMOTE_ADDR</td><td style="vertical-align:top;">:</td><td><div>127.0.0.1</div></td></tr><tr><td style="font-weight:bold;vertical-align:top;">REMOTE_PORT</td><td style="vertical-align:top;">:</td><td><div>36495</div></td></tr><tr><td style="font-weight:bold;vertical-align:top;">REQUEST_METHOD</td><td style="vertical-align:top;">:</td><td><div>GET</div></td></tr><tr><td style="font-weight:bold;vertical-align:top;">SCRIPT_NAME</td><td style="vertical-align:top;">:</td><td><div></div></td></tr><tr><td style="font-weight:bold;vertical-align:top;">SERVER_NAME</td><td style="vertical-align:top;">:</td><td><div>hack007</div></td></tr><tr><td style="font-weight:bold;vertical-align:top;">SERVER_PORT</td><td style="vertical-align:top;">:</td><td><div>8000</div></td></tr><tr><td style="font-weight:bold;vertical-align:top;">SERVER_PROTOCOL</td><td style="vertical-align:top;">:</td><td><div>HTTP/1.1</div></td></tr><tr><td style="font-weight:bold;vertical-align:top;">SERVER_SOFTWARE</td><td style="vertical-align:top;">:</td><td><div>Rocket 1.2.6</div></td></tr><tr><td style="font-weight:bold;vertical-align:top;">app_folders</td><td style="vertical-align:top;">:</td><td><div>set([&#x27;/home/gaurav/web2py/applications/admin/&#x27;, &#x27;/home/gaurav/web2py/applications/minor/&#x27;, &#x27;/home/gaurav/web2py/applications/welcome/&#x27;])</div></td></tr><tr><td style="font-weight:bold;vertical-align:top;">applications_parent</td><td style="vertical-align:top;">:</td><td><div>/home/gaurav/web2py</div></td></tr><tr><td style="font-weight:bold;vertical-align:top;">cmd_args</td><td style="vertical-align:top;">:</td><td><div><table></table></div></td></tr><tr><td style="font-weight:bold;vertical-align:top;">cmd_options</td><td style="vertical-align:top;">:</td><td><div>&lt;Values at 0x7f0f9d017998: {&#x27;verbose&#x27;: False, &#x27;ip&#x27;: &#x27;127.0.0.1&#x27;, &#x27;debuglevel&#x27;: 30, &#x27;with_scheduler&#x27;: False, &#x27;ips&#x27;: [&#x27;127.0.1.1&#x27;], &#x27;shutdown_timeout&#x27;: 5, &#x27;taskbar&#x27;: False, &#x27;with_coverage&#x27;: False, &#x27;scheduler_groups&#x27;: None, &#x27;port&#x27;: 8000, &#x27;maxthreads&#x27;: None, &#x27;softcron&#x27;: False, &#x27;server_name&#x27;: &#x27;hack007&#x27;, &#x27;bpython&#x27;: False, &#x27;nogui&#x27;: False, &#x27;pid_filename&#x27;: &#x27;httpserver.pid&#x27;, &#x27;print_errors&#x27;: False, &#x27;extcron&#x27;: False, &#x27;runcron&#x27;: False, &#x27;run_system_tests&#x27;: False, &#x27;test&#x27;: None, &#x27;folder&#x27;: &#x27;/home/gaurav/web2py&#x27;, &#x27;config&#x27;: &#x27;&#x27;, &#x27;minthreads&#x27;: None, &#x27;shell&#x27;: None, &#x27;run&#x27;: &#x27;&#x27;, &#x27;log_filename&#x27;: &#x27;httpserver.log&#x27;, &#x27;profiler_dir&#x27;: None, &#x27;args&#x27;: [&#x27;&#x27;], &#x27;socket_timeout&#x27;: 5, &#x27;ssl_ca_certificate&#x27;: None, &#x27;scheduler&#x27;: None, &#x27;interfaces&#x27;: None, &#x27;ssl_private_key&#x27;: &#x27;&#x27;, &#x27;gae&#x27;: None, &#x27;password&#x27;: &#x27;&lt;ask&gt;&#x27;, &#x27;request_queue_size&#x27;: 5, &#x27;ssl_certificate&#x27;: &#x27;&#x27;, &#x27;cronjob&#x27;: False, &#x27;numthreads&#x27;: None, &#x27;quiet&#x27;: False, &#x27;import_models&#x27;: False, &#x27;timeout&#x27;: 10, &#x27;plain&#x27;: False, &#x27;nobanner&#x27;: False}&gt;</div></td></tr><tr><td style="font-weight:bold;vertical-align:top;">db_sessions</td><td style="vertical-align:top;">:</td><td><div>set([])</div></td></tr><tr><td style="font-weight:bold;vertical-align:top;">debugging</td><td style="vertical-align:top;">:</td><td><div>True</div></td></tr><tr><td style="font-weight:bold;vertical-align:top;">gluon_parent</td><td style="vertical-align:top;">:</td><td><div>/home/gaurav/web2py</div></td></tr><tr><td style="font-weight:bold;vertical-align:top;">http_accept</td><td style="vertical-align:top;">:</td><td><div>text/html,application/xhtml+xml,application/xml;q=0.9,image/webp,*/*;q=0.8</div></td></tr><tr><td style="font-weight:bold;vertical-align:top;">http_accept_encoding</td><td style="vertical-align:top;">:</td><td><div>gzip, deflate, sdch</div></td></tr><tr><td style="font-weight:bold;vertical-align:top;">http_accept_language</td><td style="vertical-align:top;">:</td><td><div>en-US,en;q=0.8</div></td></tr><tr><td style="font-weight:bold;vertical-align:top;">http_cache_control</td><td style="vertical-align:top;">:</td><td><div>max-age=0</div></td></tr><tr><td style="font-weight:bold;vertical-align:top;">http_connection</td><td style="vertical-align:top;">:</td><td><div>keep-alive</div></td></tr><tr><td style="font-weight:bold;vertical-align:top;">http_cookie</td><td style="vertical-align:top;">:</td><td><div>session_id_welcome=127.0.0.1-de2acef1-573d-402f-b522-a980e62e77f9; session_id_minor=127.0.0.1-abf35c95-46f8-4cd6-a550-8772393b6e0e; session_id_admin=127.0.0.1-2ecd2414-1e32-4ef1-8465-f55534696777</div></td></tr><tr><td style="font-weight:bold;vertical-align:top;">http_dnt</td><td style="vertical-align:top;">:</td><td><div>1</div></td></tr><tr><td style="font-weight:bold;vertical-align:top;">http_host</td><td style="vertical-align:top;">:</td><td><div>127.0.0.1:8000</div></td></tr><tr><td style="font-weight:bold;vertical-align:top;">http_user_agent</td><td style="vertical-align:top;">:</td><td><div>Mozilla/5.0 (X11; Linux x86_64) AppleWebKit/537.36 (KHTML, like Gecko) Chrome/42.0.2311.135 Safari/537.36</div></td></tr><tr><td style="font-weight:bold;vertical-align:top;">is_jython</td><td style="vertical-align:top;">:</td><td><div>False</div></td></tr><tr><td style="font-weight:bold;vertical-align:top;">is_pypy</td><td style="vertical-align:top;">:</td><td><div>False</div></td></tr><tr><td style="font-weight:bold;vertical-align:top;">is_source</td><td style="vertical-align:top;">:</td><td><div>True</div></td></tr><tr><td style="font-weight:bold;vertical-align:top;">local_hosts</td><td style="vertical-align:top;">:</td><td><div><table><tr><td><div>hack007</div></td></tr><tr><td><div>::1</div></td></tr><tr><td><div>127.0.1.1</div></td></tr><tr><td><div>::ffff:127.0.0.1</div></td></tr><tr><td><div>127.0.0.1</div></td></tr></table></div></td></tr><tr><td style="font-weight:bold;vertical-align:top;">path_info</td><td style="vertical-align:top;">:</td><td><div>/minor/default/trendinglang</div></td></tr><tr><td style="font-weight:bold;vertical-align:top;">query_string</td><td style="vertical-align:top;">:</td><td><div></div></td></tr><tr><td style="font-weight:bold;vertical-align:top;">remote_addr</td><td style="vertical-align:top;">:</td><td><div>127.0.0.1</div></td></tr><tr><td style="font-weight:bold;vertical-align:top;">remote_port</td><td style="vertical-align:top;">:</td><td><div>36495</div></td></tr><tr><td style="font-weight:bold;vertical-align:top;">request_method</td><td style="vertical-align:top;">:</td><td><div>GET</div></td></tr><tr><td style="font-weight:bold;vertical-align:top;">request_uri</td><td style="vertical-align:top;">:</td><td><div>/minor/default/trendinglang</div></td></tr><tr><td style="font-weight:bold;vertical-align:top;">script_name</td><td style="vertical-align:top;">:</td><td><div></div></td></tr><tr><td style="font-weight:bold;vertical-align:top;">server_name</td><td style="vertical-align:top;">:</td><td><div>hack007</div></td></tr><tr><td style="font-weight:bold;vertical-align:top;">server_port</td><td style="vertical-align:top;">:</td><td><div>8000</div></td></tr><tr><td style="font-weight:bold;vertical-align:top;">server_protocol</td><td style="vertical-align:top;">:</td><td><div>HTTP/1.1</div></td></tr><tr><td style="font-weight:bold;vertical-align:top;">server_software</td><td style="vertical-align:top;">:</td><td><div>Rocket 1.2.6</div></td></tr><tr><td style="font-weight:bold;vertical-align:top;">web2py_path</td><td style="vertical-align:top;">:</td><td><div>/home/gaurav/web2py</div></td></tr><tr><td style="font-weight:bold;vertical-align:top;">web2py_version</td><td style="vertical-align:top;">:</td><td><div>2.10.4-stable+timestamp.2015.04.26.15.11.54</div></td></tr><tr><td style="font-weight:bold;vertical-align:top;">wsgi.errors</td><td style="vertical-align:top;">:</td><td><div>&lt;open file &#x27;&lt;stderr&gt;&#x27;, mode &#x27;w&#x27; at 0x7f0fa61741e0&gt;</div></td></tr><tr><td style="font-weight:bold;vertical-align:top;">wsgi.file_wrapper</td><td style="vertical-align:top;">:</td><td><div>&lt;class wsgiref.util.FileWrapper at 0x7f0f9cc48328&gt;</div></td></tr><tr><td style="font-weight:bold;vertical-align:top;">wsgi.input</td><td style="vertical-align:top;">:</td><td><div>&lt;socket._fileobject object at 0x7f0f6d70d150&gt;</div></td></tr><tr><td style="font-weight:bold;vertical-align:top;">wsgi.multiprocess</td><td style="vertical-align:top;">:</td><td><div>False</div></td></tr><tr><td style="font-weight:bold;vertical-align:top;">wsgi.multithread</td><td style="vertical-align:top;">:</td><td><div>True</div></td></tr><tr><td style="font-weight:bold;vertical-align:top;">wsgi.run_once</td><td style="vertical-align:top;">:</td><td><div>False</div></td></tr><tr><td style="font-weight:bold;vertical-align:top;">wsgi.url_scheme</td><td style="vertical-align:top;">:</td><td><div>http</div></td></tr><tr><td style="font-weight:bold;vertical-align:top;">wsgi.version</td><td style="vertical-align:top;">:</td><td><div><table><tr><td><div>1</div></td></tr><tr><td><div>0</div></td></tr></table></div></td></tr><tr><td style="font-weight:bold;vertical-align:top;">wsgi_errors</td><td style="vertical-align:top;">:</td><td><div>&lt;open file &#x27;&lt;stderr&gt;&#x27;, mode &#x27;w&#x27; at 0x7f0fa61741e0&gt;</div></td></tr><tr><td style="font-weight:bold;vertical-align:top;">wsgi_file_wrapper</td><td style="vertical-align:top;">:</td><td><div>&lt;class wsgiref.util.FileWrapper at 0x7f0f9cc48328&gt;</div></td></tr><tr><td style="font-weight:bold;vertical-align:top;">wsgi_input</td><td style="vertical-align:top;">:</td><td><div>&lt;socket._fileobject object at 0x7f0f6d70d150&gt;</div></td></tr><tr><td style="font-weight:bold;vertical-align:top;">wsgi_multiprocess</td><td style="vertical-align:top;">:</td><td><div>False</div></td></tr><tr><td style="font-weight:bold;vertical-align:top;">wsgi_multithread</td><td style="vertical-align:top;">:</td><td><div>True</div></td></tr><tr><td style="font-weight:bold;vertical-align:top;">wsgi_run_once</td><td style="vertical-align:top;">:</td><td><div>False</div></td></tr><tr><td style="font-weight:bold;vertical-align:top;">wsgi_url_scheme</td><td style="vertical-align:top;">:</td><td><div>http</div></td></tr><tr><td style="font-weight:bold;vertical-align:top;">wsgi_version</td><td style="vertical-align:top;">:</td><td><div><table><tr><td><div>1</div></td></tr><tr><td><div>0</div></td></tr></table></div></td></tr></table></div></td></tr><tr><td style="font-weight:bold;vertical-align:top;">extension</td><td style="vertical-align:top;">:</td><td><div>html</div></td></tr><tr><td style="font-weight:bold;vertical-align:top;">folder</td><td style="vertical-align:top;">:</td><td><div>/home/gaurav/web2py/applications/minor/</div></td></tr><tr><td style="font-weight:bold;vertical-align:top;">function</td><td style="vertical-align:top;">:</td><td><div>trendinglang</div></td></tr><tr><td style="font-weight:bold;vertical-align:top;">global_settings</td><td style="vertical-align:top;">:</td><td><div><table><tr><td style="font-weight:bold;vertical-align:top;">app_folders</td><td style="vertical-align:top;">:</td><td><div>set([&#x27;/home/gaurav/web2py/applications/admin/&#x27;, &#x27;/home/gaurav/web2py/applications/minor/&#x27;, &#x27;/home/gaurav/web2py/applications/welcome/&#x27;])</div></td></tr><tr><td style="font-weight:bold;vertical-align:top;">applications_parent</td><td style="vertical-align:top;">:</td><td><div>/home/gaurav/web2py</div></td></tr><tr><td style="font-weight:bold;vertical-align:top;">cmd_args</td><td style="vertical-align:top;">:</td><td><div><table></table></div></td></tr><tr><td style="font-weight:bold;vertical-align:top;">cmd_options</td><td style="vertical-align:top;">:</td><td><div>&lt;Values at 0x7f0f9d017998: {&#x27;verbose&#x27;: False, &#x27;ip&#x27;: &#x27;127.0.0.1&#x27;, &#x27;debuglevel&#x27;: 30, &#x27;with_scheduler&#x27;: False, &#x27;ips&#x27;: [&#x27;127.0.1.1&#x27;], &#x27;shutdown_timeout&#x27;: 5, &#x27;taskbar&#x27;: False, &#x27;with_coverage&#x27;: False, &#x27;scheduler_groups&#x27;: None, &#x27;port&#x27;: 8000, &#x27;maxthreads&#x27;: None, &#x27;softcron&#x27;: False, &#x27;server_name&#x27;: &#x27;hack007&#x27;, &#x27;bpython&#x27;: False, &#x27;nogui&#x27;: False, &#x27;pid_filename&#x27;: &#x27;httpserver.pid&#x27;, &#x27;print_errors&#x27;: False, &#x27;extcron&#x27;: False, &#x27;runcron&#x27;: False, &#x27;run_system_tests&#x27;: False, &#x27;test&#x27;: None, &#x27;folder&#x27;: &#x27;/home/gaurav/web2py&#x27;, &#x27;config&#x27;: &#x27;&#x27;, &#x27;minthreads&#x27;: None, &#x27;shell&#x27;: None, &#x27;run&#x27;: &#x27;&#x27;, &#x27;log_filename&#x27;: &#x27;httpserver.log&#x27;, &#x27;profiler_dir&#x27;: None, &#x27;args&#x27;: [&#x27;&#x27;], &#x27;socket_timeout&#x27;: 5, &#x27;ssl_ca_certificate&#x27;: None, &#x27;scheduler&#x27;: None, &#x27;interfaces&#x27;: None, &#x27;ssl_private_key&#x27;: &#x27;&#x27;, &#x27;gae&#x27;: None, &#x27;password&#x27;: &#x27;&lt;ask&gt;&#x27;, &#x27;request_queue_size&#x27;: 5, &#x27;ssl_certificate&#x27;: &#x27;&#x27;, &#x27;cronjob&#x27;: False, &#x27;numthreads&#x27;: None, &#x27;quiet&#x27;: False, &#x27;import_models&#x27;: False, &#x27;timeout&#x27;: 10, &#x27;plain&#x27;: False, &#x27;nobanner&#x27;: False}&gt;</div></td></tr><tr><td style="font-weight:bold;vertical-align:top;">db_sessions</td><td style="vertical-align:top;">:</td><td><div>set([])</div></td></tr><tr><td style="font-weight:bold;vertical-align:top;">debugging</td><td style="vertical-align:top;">:</td><td><div>True</div></td></tr><tr><td style="font-weight:bold;vertical-align:top;">gluon_parent</td><td style="vertical-align:top;">:</td><td><div>/home/gaurav/web2py</div></td></tr><tr><td style="font-weight:bold;vertical-align:top;">is_jython</td><td style="vertical-align:top;">:</td><td><div>False</div></td></tr><tr><td style="font-weight:bold;vertical-align:top;">is_pypy</td><td style="vertical-align:top;">:</td><td><div>False</div></td></tr><tr><td style="font-weight:bold;vertical-align:top;">is_source</td><td style="vertical-align:top;">:</td><td><div>True</div></td></tr><tr><td style="font-weight:bold;vertical-align:top;">local_hosts</td><td style="vertical-align:top;">:</td><td><div><table><tr><td><div>hack007</div></td></tr><tr><td><div>::1</div></td></tr><tr><td><div>127.0.1.1</div></td></tr><tr><td><div>::ffff:127.0.0.1</div></td></tr><tr><td><div>127.0.0.1</div></td></tr></table></div></td></tr><tr><td style="font-weight:bold;vertical-align:top;">web2py_version</td><td style="vertical-align:top;">:</td><td><div>2.10.4-stable+timestamp.2015.04.26.15.11.54</div></td></tr></table></div></td></tr><tr><td style="font-weight:bold;vertical-align:top;">is_https</td><td style="vertical-align:top;">:</td><td><div>False</div></td></tr><tr><td style="font-weight:bold;vertical-align:top;">is_local</td><td style="vertical-align:top;">:</td><td><div>True</div></td></tr><tr><td style="font-weight:bold;vertical-align:top;">is_restful</td><td style="vertical-align:top;">:</td><td><div>False</div></td></tr><tr><td style="font-weight:bold;vertical-align:top;">is_sheduler</td><td style="vertical-align:top;">:</td><td><div>None</div></td></tr><tr><td style="font-weight:bold;vertical-align:top;">is_shell</td><td style="vertical-align:top;">:</td><td><div>None</div></td></tr><tr><td style="font-weight:bold;vertical-align:top;">now</td><td style="vertical-align:top;">:</td><td><div>datetime.datetime(2015, 5, 11, 8, 49, 38, 453310)</div></td></tr><tr><td style="font-weight:bold;vertical-align:top;">raw_args</td><td style="vertical-align:top;">:</td><td><div></div></td></tr><tr><td style="font-weight:bold;vertical-align:top;">raw_extension</td><td style="vertical-align:top;">:</td><td><div>None</div></td></tr><tr><td style="font-weight:bold;vertical-align:top;">url</td><td style="vertical-align:top;">:</td><td><div>/minor/default/trendinglang</div></td></tr><tr><td style="font-weight:bold;vertical-align:top;">utcnow</td><td style="vertical-align:top;">:</td><td><div>datetime.datetime(2015, 5, 11, 3, 19, 38, 453336)</div></td></tr><tr><td style="font-weight:bold;vertical-align:top;">uuid</td><td style="vertical-align:top;">:</td><td><div>minor/127.0.0.1.2015-05-11.08-49-38.6374f13e-1ae4-4b8c-80f2-a3812ebdf990</div></td></tr><tr><td style="font-weight:bold;vertical-align:top;">wsgi</td><td style="vertical-align:top;">:</td><td><div>&lt;gluon.main.LazyWSGI object at 0x7f0f6d7295d0&gt;</div></td></tr></table></div>'
tRp58
sS'frames'
p59
(lp60
(dp61
S'file'
p62
S'/home/gaurav/web2py/gluon/restricted.py'
p63
sS'dump'
p64
(dp65
S'environment'
p66
S"{'A': <class 'gluon.html.A'>, 'ANY_OF': <class 'gluon.validators.ANY_OF'>, 'ASSIGNJS': <function ASSIGNJS>, 'AppConfig': <function AppConfig>, 'Auth': <class 'gluon.tools.Auth'>, 'B': <class 'gluon.html.B'>, 'BEAUTIFY': <class 'gluon.html.BEAUTIFY'>, 'BODY': <class 'gluon.html.BODY'>, 'BR': <class 'gluon.html.BR'>, 'BUTTON': <class 'gluon.html.BUTTON'>, ...}"
p67
sS'ccode'
p68
S'<code object <module> at 0x7f0f6d70d830, file "/...s/minor/views/default/trendinglang.html", line 1>'
p69
ssS'lnum'
p70
I227
sS'lines'
p71
(dp72
I224
S'            ccode = code'
p73
sI225
S'        else:'
p74
sI226
S'            ccode = compile2(code, layer)'
p75
sI227
S'        exec ccode in environment'
p76
sI228
S'    except HTTP:'
p77
sI229
S'        raise'
p78
sI230
S'    except RestrictedError:'
p79
sI231
S'        # do not encapsulate (obfuscate) the original RestrictedError'
p80
sI222
S'    try:'
p81
sI223
S'        if isinstance(code, types.CodeType):'
p82
ssS'call'
p83
S'(code=\'response.write(\\\'<!DOCTYPE html>\\\\n<!--[if (gt IE ..."></script>\\\\n  </body>\\\\n</html>\\\\n\\\', escape=False)\', environment={\'A\': <class \'gluon.html.A\'>, \'ANY_OF\': <class \'gluon.validators.ANY_OF\'>, \'ASSIGNJS\': <function ASSIGNJS>, \'AppConfig\': <function AppConfig>, \'Auth\': <class \'gluon.tools.Auth\'>, \'B\': <class \'gluon.html.B\'>, \'BEAUTIFY\': <class \'gluon.html.BEAUTIFY\'>, \'BODY\': <class \'gluon.html.BODY\'>, \'BR\': <class \'gluon.html.BR\'>, \'BUTTON\': <class \'gluon.html.BUTTON\'>, ...}, layer=\'/home/gaurav/web2py/applications/minor/views/default/trendinglang.html\')'
p84
sS'func'
p85
S'restricted'
p86
sa(dp87
g62
S'/home/gaurav/web2py/applications/minor/views/default/trendinglang.html'
p88
sg64
(dp89
sg70
I81
sg71
(dp90
I72
S'response.write(\'\\n\\n      <div class="\', escape=False)'
p91
sI73
S'response.write(middle_column)'
p92
sI74
S'response.write(\'">\\n        \', escape=False)'
p93
sI75
S"response.write('\\n        ', escape=False)"
p94
sI76
S'response.write(\'\\n<style>\\n.trend{\\nfont-size:20px;\\ncolor:green;\\nmargin-left:50px;\\npadding-bottom: 25px;\\nmargin-bottom:100px\\n}\\n</style>\\n<h2 style=""><center>Trending Language</center></h2>\\n<div class="trend">\\nMost Trending Language : \\t:\', escape=False)'
p95
sI77
S'response.write(trendinglang[0])'
p96
sI78
S"response.write('<br/>\\nEdits per hour in trending Lang\\t:', escape=False)"
p97
sI79
S'response.write(counts)'
p98
sI80
S"response.write('\\nEdits per hour in trending Lang\\t:', escape=False)"
p99
sI81
S'response.write(sortedlist[0])'
p100
sI82
S"response.write('\\nEdits per hour in trending Lang\\t:', escape=False)"
p101
sI83
S'response.write(sortedlist[1])'
p102
sI84
S"response.write('\\nEdits per hour in trending Lang\\t:', escape=False)"
p103
sI85
S'response.write(sortedlist[2])'
p104
sI86
S"response.write('\\n</div>\\n', escape=False)"
p105
sI87
S"response.write('\\n        ', escape=False)"
p106
sI88
S"response.write('\\n      </div>\\n\\n      ', escape=False)"
p107
sI89
S'if right_sidebar_enabled:'
p108
sI90
S'    response.write(\'\\n        <div class="col-md-3">\\n            \', escape=False)'
p109
sI91
S"    response.write('\\n            <h3>Right Sidebar</h3>\\n            <p></p>\\n            ', escape=False)"
p110
ssg83
S'()'
p111
sg85
S'<module>'
p112
sasS'pyver'
p113
S'Python 2.7.6: /usr/bin/python (prefix: /usr)'
p114
sS'session'
p115
g57
(S's\x1a\x00\x00\x00<div><table></table></div>'
tRp116
sS'etype'
p117
S"<type 'exceptions.TypeError'>"
p118
sS'date'
p119
S'Mon May 11 08:49:38 2015'
p120
sS'response'
p121
g57
(S'so!\x00\x00<div><table><tr><td style="font-weight:bold;vertical-align:top;">body</td><td style="vertical-align:top;">:</td><td><div>&lt;cStringIO.StringO object at 0x7f0f6c72e730&gt;</div></td></tr><tr><td style="font-weight:bold;vertical-align:top;">cookies</td><td style="vertical-align:top;">:</td><td><div><table><tr><td style="font-weight:bold;vertical-align:top;">session_id_minor</td><td style="vertical-align:top;">:</td><td><div>127.0.0.1-870265c7-8edd-4f65-80db-a4a704d0f8ec<table><tr><td style="font-weight:bold;vertical-align:top;">comment</td><td style="vertical-align:top;">:</td><td><div></div></td></tr><tr><td style="font-weight:bold;vertical-align:top;">domain</td><td style="vertical-align:top;">:</td><td><div></div></td></tr><tr><td style="font-weight:bold;vertical-align:top;">expires</td><td style="vertical-align:top;">:</td><td><div></div></td></tr><tr><td style="font-weight:bold;vertical-align:top;">httponly</td><td style="vertical-align:top;">:</td><td><div></div></td></tr><tr><td style="font-weight:bold;vertical-align:top;">max-age</td><td style="vertical-align:top;">:</td><td><div></div></td></tr><tr><td style="font-weight:bold;vertical-align:top;">path</td><td style="vertical-align:top;">:</td><td><div>/</div></td></tr><tr><td style="font-weight:bold;vertical-align:top;">secure</td><td style="vertical-align:top;">:</td><td><div></div></td></tr><tr><td style="font-weight:bold;vertical-align:top;">version</td><td style="vertical-align:top;">:</td><td><div></div></td></tr></table></div></td></tr></table></div></td></tr><tr><td style="font-weight:bold;vertical-align:top;">delimiters</td><td style="vertical-align:top;">:</td><td><div><table><tr><td><div>{{</div></td></tr><tr><td><div>}}</div></td></tr></table></div></td></tr><tr><td style="font-weight:bold;vertical-align:top;">files</td><td style="vertical-align:top;">:</td><td><div><table><tr><td><div>/minor/static/js/jquery.js</div></td></tr><tr><td><div>/minor/static/css/calendar.css</div></td></tr><tr><td><div>/minor/static/js/calendar.js</div></td></tr><tr><td><div>/minor/static/js/web2py.js</div></td></tr></table></div></td></tr><tr><td style="font-weight:bold;vertical-align:top;">flash</td><td style="vertical-align:top;">:</td><td><div></div></td></tr><tr><td style="font-weight:bold;vertical-align:top;">form_label_separator</td><td style="vertical-align:top;">:</td><td><div></div></td></tr><tr><td style="font-weight:bold;vertical-align:top;">formstyle</td><td style="vertical-align:top;">:</td><td><div>bootstrap3_inline</div></td></tr><tr><td style="font-weight:bold;vertical-align:top;">generic_patterns</td><td style="vertical-align:top;">:</td><td><div><table><tr><td><div>*</div></td></tr></table></div></td></tr><tr><td style="font-weight:bold;vertical-align:top;">google_analytics_id</td><td style="vertical-align:top;">:</td><td><div>None</div></td></tr><tr><td style="font-weight:bold;vertical-align:top;">headers</td><td style="vertical-align:top;">:</td><td><div><table><tr><td style="font-weight:bold;vertical-align:top;">X-Powered-By</td><td style="vertical-align:top;">:</td><td><div>web2py</div></td></tr></table></div></td></tr><tr><td style="font-weight:bold;vertical-align:top;">logo</td><td style="vertical-align:top;">:</td><td><div><a class="navbar-brand" href="http://www.web2py.com/" id="web2py-logo"><b>@MonWiki</b>&nbsp;</a></div></td></tr><tr><td style="font-weight:bold;vertical-align:top;">menu</td><td style="vertical-align:top;">:</td><td><div><table><tr><td><div><table><tr><td><div>Home</div></td></tr><tr><td><div>False</div></td></tr><tr><td><div>/minor/default/index</div></td></tr><tr><td><div><table></table></div></td></tr></table></div></td></tr><tr><td><div><table><tr><td><div>Live Feed</div></td></tr><tr><td><div>False</div></td></tr><tr><td><div>/minor/default/show</div></td></tr><tr><td><div><table></table></div></td></tr></table></div></td></tr><tr><td><div><table><tr><td><div>Trending Lang</div></td></tr><tr><td><div>False</div></td></tr><tr><td><div>/minor/default/trendinglang</div></td></tr><tr><td><div><table></table></div></td></tr></table></div></td></tr><tr><td><div><table><tr><td><div>Trending Topic</div></td></tr><tr><td><div>False</div></td></tr><tr><td><div>/minor/default/trendingtopic</div></td></tr><tr><td><div><table></table></div></td></tr></table></div></td></tr><tr><td><div><table><tr><td><div>History</div></td></tr><tr><td><div>False</div></td></tr><tr><td><div>/minor/default/history</div></td></tr><tr><td><div><table></table></div></td></tr></table></div></td></tr><tr><td><div><table><tr><td><div>News</div></td></tr><tr><td><div>False</div></td></tr><tr><td><div>/minor/default/news</div></td></tr><tr><td><div><table></table></div></td></tr></table></div></td></tr></table></div></td></tr><tr><td style="font-weight:bold;vertical-align:top;">meta</td><td style="vertical-align:top;">:</td><td><div><table><tr><td style="font-weight:bold;vertical-align:top;">author</td><td style="vertical-align:top;">:</td><td><div>Your Name &lt;you@example.com&gt;</div></td></tr><tr><td style="font-weight:bold;vertical-align:top;">description</td><td style="vertical-align:top;">:</td><td><div>a cool new MonWikiapp</div></td></tr><tr><td style="font-weight:bold;vertical-align:top;">generator</td><td style="vertical-align:top;">:</td><td><div>Web2py Web Framework</div></td></tr><tr><td style="font-weight:bold;vertical-align:top;">keywords</td><td style="vertical-align:top;">:</td><td><div>web2py, python, framework</div></td></tr></table></div></td></tr><tr><td style="font-weight:bold;vertical-align:top;">models_to_run</td><td style="vertical-align:top;">:</td><td><div><table><tr><td><div>^\\w+\\.py$</div></td></tr><tr><td><div>^default/\\w+\\.py$</div></td></tr><tr><td><div>^default/trendinglang/\\w+\\.py$</div></td></tr></table></div></td></tr><tr><td style="font-weight:bold;vertical-align:top;">postprocessing</td><td style="vertical-align:top;">:</td><td><div><table></table></div></td></tr><tr><td style="font-weight:bold;vertical-align:top;">session_client</td><td style="vertical-align:top;">:</td><td><div>127.0.0.1</div></td></tr><tr><td style="font-weight:bold;vertical-align:top;">session_cookie_compression_level</td><td style="vertical-align:top;">:</td><td><div>None</div></td></tr><tr><td style="font-weight:bold;vertical-align:top;">session_cookie_expires</td><td style="vertical-align:top;">:</td><td><div>None</div></td></tr><tr><td style="font-weight:bold;vertical-align:top;">session_cookie_key</td><td style="vertical-align:top;">:</td><td><div>None</div></td></tr><tr><td style="font-weight:bold;vertical-align:top;">session_data_name</td><td style="vertical-align:top;">:</td><td><div>session_data_minor</div></td></tr><tr><td style="font-weight:bold;vertical-align:top;">session_file</td><td style="vertical-align:top;">:</td><td><div>None</div></td></tr><tr><td style="font-weight:bold;vertical-align:top;">session_filename</td><td style="vertical-align:top;">:</td><td><div>/home/gaurav/web2py/applications/minor/sessions/127.0.0.1-870265c7-8edd-4f65-80db-a4a704d0f8ec</div></td></tr><tr><td style="font-weight:bold;vertical-align:top;">session_hash</td><td style="vertical-align:top;">:</td><td><div>c0762cbf4baf7f9af97c051e7fcb8083</div></td></tr><tr><td style="font-weight:bold;vertical-align:top;">session_id</td><td style="vertical-align:top;">:</td><td><div>127.0.0.1-870265c7-8edd-4f65-80db-a4a704d0f8ec</div></td></tr><tr><td style="font-weight:bold;vertical-align:top;">session_id_name</td><td style="vertical-align:top;">:</td><td><div>session_id_minor</div></td></tr><tr><td style="font-weight:bold;vertical-align:top;">session_masterapp</td><td style="vertical-align:top;">:</td><td><div>minor</div></td></tr><tr><td style="font-weight:bold;vertical-align:top;">session_new</td><td style="vertical-align:top;">:</td><td><div>True</div></td></tr><tr><td style="font-weight:bold;vertical-align:top;">session_storage_type</td><td style="vertical-align:top;">:</td><td><div>file</div></td></tr><tr><td style="font-weight:bold;vertical-align:top;">status</td><td style="vertical-align:top;">:</td><td><div>200</div></td></tr><tr><td style="font-weight:bold;vertical-align:top;">subtitle</td><td style="vertical-align:top;">:</td><td><div></div></td></tr><tr><td style="font-weight:bold;vertical-align:top;">title</td><td style="vertical-align:top;">:</td><td><div>Minor</div></td></tr><tr><td style="font-weight:bold;vertical-align:top;">view</td><td style="vertical-align:top;">:</td><td><div>default/trendinglang.html</div></td></tr></table></div>'
tRp122
sS'locals'
p123
(dp124
S'Service'
p125
S"<class 'gluon.tools.Service'>"
p126
sS'OBJECT'
p127
S"<class 'gluon.html.OBJECT'>"
p128
sS'SQLDB'
p129
S"<class 'pydal.base.DAL'>"
p130
sg115
S'<Storage {}>'
p131
sS'LINK'
p132
S"<class 'gluon.html.LINK'>"
p133
sS'BR'
p134
S"<class 'gluon.html.BR'>"
p135
sS'local_import'
p136
S'<function <lambda>>'
p137
sS'OPTGROUP'
p138
S"<class 'gluon.html.OPTGROUP'>"
p139
sS'__package__'
p140
S'None'
p141
sS'PRE'
p142
S"<class 'gluon.html.PRE'>"
p143
sS'IS_INT_IN_RANGE'
p144
S"<class 'gluon.validators.IS_INT_IN_RANGE'>"
p145
sS'left_sidebar_enabled'
p146
S'False'
p147
sS'IS_LOWER'
p148
S"<class 'gluon.validators.IS_LOWER'>"
p149
sS'IS_STRONG'
p150
S"<class 'gluon.validators.IS_STRONG'>"
p151
sS'cache'
p152
S'<gluon.cache.Cache object>'
p153
sS'IS_IN_DB'
p154
S"<class 'gluon.validators.IS_IN_DB'>"
p155
sS'TAG'
p156
S'<gluon.html.__TAG__ object>'
p157
sS'SQLField'
p158
S"<class 'pydal.objects.Field'>"
p159
sS'mail'
p160
S'<gluon.tools.Mail object>'
p161
sS'BODY'
p162
S"<class 'gluon.html.BODY'>"
p163
sS'IS_DATE_IN_RANGE'
p164
S"<class 'gluon.validators.IS_DATE_IN_RANGE'>"
p165
sS'IFRAME'
p166
S"<class 'gluon.html.IFRAME'>"
p167
sS'URL'
p168
S'<function URL>'
p169
sS'__file__'
p170
S"'/home/gaurav/web2py/applications/minor/views/default/trendinglang.html'"
p171
sS'db'
p172
S'<DAL uri="mysql:******@localhost/minor">'
p173
sS'auth'
p174
S'<gluon.tools.Auth object>'
p175
sS'P'
S"<class 'gluon.html.P'>"
p176
sS'TFOOT'
p177
S"<class 'gluon.html.TFOOT'>"
p178
sS'XHTML'
p179
S"<class 'gluon.html.XHTML'>"
p180
sS'ON'
p181
S'True'
p182
sS'OL'
p183
S"<class 'gluon.html.OL'>"
p184
sS'TEXTAREA'
p185
S"<class 'gluon.html.TEXTAREA'>"
p186
sS'MENU'
p187
S"<class 'gluon.html.MENU'>"
p188
sS'IS_IMAGE'
p189
S"<class 'gluon.validators.IS_IMAGE'>"
p190
sS'EM'
p191
S"<class 'gluon.html.EM'>"
p192
sS'CODE'
p193
S"<class 'gluon.html.CODE'>"
p194
sS'HTTP'
p195
S"<class 'gluon.http.HTTP'>"
p196
sS'HR'
p197
S"<class 'gluon.html.HR'>"
p198
sS'IS_DATETIME'
p199
S"<class 'gluon.validators.IS_DATETIME'>"
p200
sS'STYLE'
p201
S"<class 'gluon.html.STYLE'>"
p202
sS'LABEL'
p203
S"<class 'gluon.html.LABEL'>"
p204
sS'CLEANUP'
p205
S"<class 'gluon.validators.CLEANUP'>"
p206
sS'plugins'
p207
S'<gluon.tools.PluginManager object>'
p208
sS'BUTTON'
p209
S"<class 'gluon.html.BUTTON'>"
p210
sS'SELECT'
p211
S"<class 'gluon.html.SELECT'>"
p212
sS'trending'
p213
S"((u'ru',), (u'es',), (u'de',), (u'ru',), (u'en',), (u'de',), (u'it',), (u'fr',), (u'en',), (u'en',), (u'en',), (u'en',), (u'en',), (u'en',), (u'fr',), (u'en',), (u'en',), (u'en',), (u'en',), (u'it',), ...)"
p214
sS'CENTER'
p215
S"<class 'gluon.html.CENTER'>"
p216
sS'Auth'
p217
S"<class 'gluon.tools.Auth'>"
p218
sS'DEVELOPMENT_MENU'
p219
g182
sS'__builtins__'
p220
S"{'ArithmeticError': <type 'exceptions.ArithmeticError'>, 'AssertionError': <type 'exceptions.AssertionError'>, 'AttributeError': <type 'exceptions.AttributeError'>, 'BaseException': <type 'exceptions.BaseException'>, 'BufferError': <type 'exceptions.BufferError'>, 'BytesWarning': <type 'exceptions.BytesWarning'>, 'DeprecationWarning': <type 'exceptions.DeprecationWarning'>, 'EOFError': <type 'exceptions.EOFError'>, 'Ellipsis': Ellipsis, 'EnvironmentError': <type 'exceptions.EnvironmentError'>, ...}"
p221
sS'HTML'
p222
S"<class 'gluon.html.HTML'>"
p223
sS'SQLFORM'
p224
S"<class 'gluon.sqlhtml.SQLFORM'>"
p225
sS'trendinglang'
p226
S"(u'en',)"
p227
sS'LOAD'
p228
S'<function LOAD>'
p229
sS'redirect'
p230
S'<function redirect>'
p231
sS'FIELDSET'
p232
S"<class 'gluon.html.FIELDSET'>"
p233
sS'IS_EQUAL_TO'
p234
S"<class 'gluon.validators.IS_EQUAL_TO'>"
p235
sS'embed64'
p236
S'<function embed64>'
p237
sS'IS_LIST_OF'
p238
S"<class 'gluon.validators.IS_LIST_OF'>"
p239
sS'INPUT'
p240
S"<class 'gluon.html.INPUT'>"
p241
sS'EMBED'
p242
S"<class 'gluon.html.EMBED'>"
p243
sS'myconf'
p244
S"{'forms': {'formstyle': 'bootstrap3_inline', 'se...'you@gmail.com', 'server': 'smtp.gmail.com:587'}}"
p245
sS'H2'
p246
S"<class 'gluon.html.H2'>"
p247
sS'H3'
p248
S"<class 'gluon.html.H3'>"
p249
sS'AppConfig'
p250
S'<function AppConfig>'
p251
sS'H1'
p252
S"<class 'gluon.html.H1'>"
p253
sS'H6'
p254
S"<class 'gluon.html.H6'>"
p255
sS'H4'
p256
S"<class 'gluon.html.H4'>"
p257
sS'H5'
p258
S"<class 'gluon.html.H5'>"
p259
sS'UL'
p260
S"<class 'gluon.html.UL'>"
p261
sS'IS_UPPER'
p262
S"<class 'gluon.validators.IS_UPPER'>"
p263
sS'xmlescape'
p264
S'<function xmlescape>'
p265
sS'IS_TIME'
p266
S"<class 'gluon.validators.IS_TIME'>"
p267
sS'OPTION'
p268
S"<class 'gluon.html.OPTION'>"
p269
sS'TITLE'
p270
S"<class 'gluon.html.TITLE'>"
p271
sS'CRYPT'
p272
S"<class 'gluon.validators.CRYPT'>"
p273
sS'IS_EMPTY_OR'
p274
S"<class 'gluon.validators.IS_EMPTY_OR'>"
p275
sS'MARKMIN'
p276
S"<class 'gluon.html.MARKMIN'>"
p277
sS'__name__'
p278
S"'__restricted__'"
p279
sS'counts'
p280
S'356'
p281
sS'STRONG'
p282
S"<class 'gluon.html.STRONG'>"
p283
sS'COL'
p284
S"<class 'gluon.html.COL'>"
p285
sS'mc1'
p286
S"'col-md-9'"
p287
sS'mc0'
p288
S"'col-md-12'"
p289
sS'service'
p290
S'<gluon.tools.Service object>'
p291
sS'SCRIPT'
p292
S"<class 'gluon.html.SCRIPT'>"
p293
sS'sortedlist'
p294
S'None'
p295
sS'TABLE'
p296
S"<class 'gluon.html.TABLE'>"
p297
sS'IS_IPV4'
p298
S"<class 'gluon.validators.IS_IPV4'>"
p299
sS'IS_LENGTH'
p300
S"<class 'gluon.validators.IS_LENGTH'>"
p301
sS'IS_IPV6'
p302
S"<class 'gluon.validators.IS_IPV6'>"
p303
sS'XML'
p304
S"<class 'gluon.html.XML'>"
p305
sS'B'
S"<class 'gluon.html.B'>"
p306
sS'IMG'
p307
S"<class 'gluon.html.IMG'>"
p308
sS'SQLTABLE'
p309
S"<class 'gluon.sqlhtml.SQLTABLE'>"
p310
sS'IS_MATCH'
p311
S"<class 'gluon.validators.IS_MATCH'>"
p312
sS'IS_ALPHANUMERIC'
p313
S"<class 'gluon.validators.IS_ALPHANUMERIC'>"
p314
sS'SPAN'
p315
S"<class 'gluon.html.SPAN'>"
p316
sS'IS_JSON'
p317
S"<class 'gluon.validators.IS_JSON'>"
p318
sS'IS_IPADDRESS'
p319
S"<class 'gluon.validators.IS_IPADDRESS'>"
p320
sS'IS_SLUG'
p321
S"<class 'gluon.validators.IS_SLUG'>"
p322
sS'BEAUTIFY'
p323
S"<class 'gluon.html.BEAUTIFY'>"
p324
sS'META'
p325
S"<class 'gluon.html.META'>"
p326
sS'k'
S"[(u'ru',), (u'ru',), (u'ru',), (u'ru',), (u'ru',), (u'ru',), (u'ru',), (u'ru',), (u'ru',), (u'ru',), (u'ru',), (u'ru',), (u'ru',), (u'ru',), (u'ru',), (u'ru',), (u'ru',), (u'ru',), (u'ru',), (u'ru',), ...]"
p327
sS'IS_DATE'
p328
S"<class 'gluon.validators.IS_DATE'>"
p329
sS'IS_EMAIL'
p330
S"<class 'gluon.validators.IS_EMAIL'>"
p331
sS'middle_column'
p332
S"'col-md-12'"
p333
sS'IS_NOT_EMPTY'
p334
S"<class 'gluon.validators.IS_NOT_EMPTY'>"
p335
sS'IS_FLOAT_IN_RANGE'
p336
S"<class 'gluon.validators.IS_FLOAT_IN_RANGE'>"
p337
sS'TBODY'
p338
S"<class 'gluon.html.TBODY'>"
p339
sS'CAT'
p340
S"<class 'gluon.html.CAT'>"
p341
sS'Field'
p342
S"<class 'pydal.objects.Field'>"
p343
sS'mc2'
p344
S"'col-md-6'"
p345
sS'IS_LIST_OF_EMAILS'
p346
S"<class 'gluon.validators.IS_LIST_OF_EMAILS'>"
p347
sS'DIV'
p348
S"<class 'gluon.html.DIV'>"
p349
sS'LEGEND'
p350
S"<class 'gluon.html.LEGEND'>"
p351
sS'COLGROUP'
p352
S"<class 'gluon.html.COLGROUP'>"
p353
sS'DAL'
p354
S"<class 'pydal.base.DAL'>"
p355
sS'ASSIGNJS'
p356
S'<function ASSIGNJS>'
p357
sS'TR'
p358
S"<class 'gluon.html.TR'>"
p359
sS'LI'
p360
S"<class 'gluon.html.LI'>"
p361
sS'right_sidebar_enabled'
p362
g147
sS'TH'
p363
S"<class 'gluon.html.TH'>"
p364
sS'TD'
p365
S"<class 'gluon.html.TD'>"
p366
sS'PluginManager'
p367
S"<class 'gluon.tools.PluginManager'>"
p368
sS'IS_URL'
p369
S"<class 'gluon.validators.IS_URL'>"
p370
sS'A'
S"<class 'gluon.html.A'>"
p371
sS'HEAD'
p372
S"<class 'gluon.html.HEAD'>"
p373
sS'IS_DATETIME_IN_RANGE'
p374
S"<class 'gluon.validators.IS_DATETIME_IN_RANGE'>"
p375
sS'FORM'
p376
S"<class 'gluon.html.FORM'>"
p377
sS'I'
S"<class 'gluon.html.I'>"
p378
sS'IS_NOT_IN_DB'
p379
S"<class 'gluon.validators.IS_NOT_IN_DB'>"
p380
sg121
S"<Storage {'body': <cStringIO.StringO object at 0...f6d72ba28>, 'view': 'default/trendinglang.html'}>"
p381
sS'THEAD'
p382
S"<class 'gluon.html.THEAD'>"
p383
sS'ANY_OF'
p384
S"<class 'gluon.validators.ANY_OF'>"
p385
sS'IS_NULL_OR'
p386
S"<class 'gluon.validators.IS_EMPTY_OR'>"
p387
sg56
S"<Storage {'_vars': None, 'function': 'trendingla...der': '/home/gaurav/web2py/applications/minor/'}>"
p388
sS'IS_EXPR'
p389
S"<class 'gluon.validators.IS_EXPR'>"
p390
sS'T'
S'<gluon.languages.translator object>'
p391
sS'IS_IN_SET'
p392
S"<class 'gluon.validators.IS_IN_SET'>"
p393
sS'IS_UPLOAD_FILENAME'
p394
S"<class 'gluon.validators.IS_UPLOAD_FILENAME'>"
p395
sS'TT'
p396
S"<class 'gluon.html.TT'>"
p397
sS'IS_DECIMAL_IN_RANGE'
p398
S"<class 'gluon.validators.IS_DECIMAL_IN_RANGE'>"
p399
sssS'traceback'
p400
S'Traceback (most recent call last):\n  File "/home/gaurav/web2py/gluon/restricted.py", line 227, in restricted\n    exec ccode in environment\n  File "/home/gaurav/web2py/applications/minor/views/default/trendinglang.html", line 81, in <module>\nTypeError: \'NoneType\' object has no attribute \'__getitem__\'\n'
p401
s.